target datalayout = "e-m:e-p270:32:32-p271:32:32-p272:64:64-i64:64-i128:128-f80:128-n8:16:32:64-S128"
target triple = "x86_64-pc-linux-gnu"

%struct._zend_executor_globals = type { %struct._zval_struct, %struct._zval_struct, [32 x ptr], ptr, ptr, %struct._zend_array, %struct._zend_array, ptr, i32, i32, ptr, ptr, ptr, ptr, ptr, ptr, i64, ptr, ptr, i32, i32, i64, i32, i32, i32, i8, i8, %struct.zend_atomic_bool_s, %struct.zend_atomic_bool_s, ptr, i64, ptr, ptr, %struct._zend_array, %struct._zend_array, i32, i8, %struct._zval_struct, %struct._zval_struct, %struct._zend_stack, %struct._zend_stack, %struct._zend_stack, ptr, i32, i32, i64, ptr, ptr, ptr, %struct._zend_objects_store, ptr, ptr, ptr, [3 x %struct._zend_op], ptr, i8, i8, i64, i32, i32, ptr, [16 x %struct._HashTableIterator], ptr, %union._zend_function, %struct._zend_op, %struct._zend_array, i64, %struct.zend_get_gc_buffer, ptr, ptr, ptr, i64, i8, i32, ptr, ptr, i64, %struct._zend_call_stack, i64, i64, [6 x ptr] }
%struct.zend_atomic_bool_s = type { i8 }
%struct._zval_struct = type { %union._zend_value, %union.anon.0, %union.anon.3 }
%union._zend_value = type { i64 }
%union.anon.0 = type { i32 }
%union.anon.3 = type { i32 }
%struct._zend_stack = type { i32, i32, i32, ptr }
%struct._zend_objects_store = type { ptr, i32, i32, i32 }
%struct._HashTableIterator = type { ptr, i32, i32 }
%union._zend_function = type { %struct._zend_op_array }
%struct._zend_op_array = type { i8, [3 x i8], i32, ptr, ptr, ptr, i32, i32, ptr, ptr, ptr, ptr, i32, i32, i32, i32, ptr, ptr, ptr, ptr, ptr, i32, i32, ptr, ptr, ptr, i32, i32, i32, i32, ptr, ptr, [6 x ptr] }
%struct._zend_op = type { ptr, %union._znode_op, %union._znode_op, %union._znode_op, i32, i32, i8, i8, i8, i8 }
%union._znode_op = type { i32 }
%struct._zend_array = type { %struct._zend_refcounted_h, %union.anon.4, i32, %union.anon.6, i32, i32, i32, i32, i64, ptr }
%struct._zend_refcounted_h = type { i32, %union.anon }
%union.anon = type { i32 }
%union.anon.4 = type { i32 }
%union.anon.6 = type { ptr }
%struct.zend_get_gc_buffer = type { ptr, ptr, ptr }
%struct._zend_call_stack = type { ptr, i64 }
%struct._dom_object = type { ptr, ptr, ptr, %struct._zend_object }
%struct._zend_object = type { %struct._zend_refcounted_h, i32, ptr, ptr, ptr, [1 x %struct._zval_struct] }
%struct._zend_execute_data = type { ptr, ptr, ptr, ptr, %struct._zval_struct, ptr, ptr, ptr, ptr }

@executor_globals = external global %struct._zend_executor_globals, align 8
@.str.1 = private unnamed_addr constant [25 x i8] c"must be between 0 and %d\00", align 1

; Function Attrs: nounwind uwtable
define internal ptr @php_dom_obj_from_obj(ptr noundef %0) #0 {
  %2 = alloca ptr, align 8
  store ptr %0, ptr %2, align 8
  %3 = load ptr, ptr %2, align 8
  %4 = getelementptr inbounds i8, ptr %3, i64 -24
  ret ptr %4
}

; Function Attrs: nounwind uwtable
define hidden void @zim_DOMNamedNodeMap_item(ptr noundef %0, ptr noundef %1) #0 {
  %3 = alloca ptr, align 8
  %4 = alloca ptr, align 8
  %5 = alloca i1, align 1
  %6 = alloca ptr, align 8
  %7 = alloca ptr, align 8
  %8 = alloca ptr, align 8
  %9 = alloca i8, align 1
  %10 = alloca i32, align 4
  %11 = alloca i8, align 1
  %12 = alloca ptr, align 8
  %13 = alloca ptr, align 8
  %14 = alloca ptr, align 8
  %15 = alloca i8, align 1
  %16 = alloca i32, align 4
  %17 = alloca ptr, align 8
  %18 = alloca ptr, align 8
  %19 = alloca i64, align 8
  %20 = alloca i32, align 4
  %21 = alloca i32, align 4
  %22 = alloca i32, align 4
  %23 = alloca i32, align 4
  %24 = alloca i32, align 4
  %25 = alloca ptr, align 8
  %26 = alloca ptr, align 8
  %27 = alloca i32, align 4
  %28 = alloca ptr, align 8
  %29 = alloca i8, align 1
  %30 = alloca i8, align 1
  %31 = alloca i32, align 4
  %32 = alloca ptr, align 8
  %33 = alloca ptr, align 8
  %34 = alloca ptr, align 8
  store ptr %0, ptr %17, align 8
  store ptr %1, ptr %18, align 8
  br label %35

35:                                               ; preds = %2
  store i32 0, ptr %20, align 4
  store i32 1, ptr %21, align 4
  store i32 1, ptr %22, align 4
  %36 = load ptr, ptr %17, align 8
  %37 = getelementptr inbounds %struct._zend_execute_data, ptr %36, i32 0, i32 4
  %38 = getelementptr inbounds %struct._zval_struct, ptr %37, i32 0, i32 2
  %39 = load i32, ptr %38, align 4
  store i32 %39, ptr %23, align 4
  store i32 0, ptr %24, align 4
  store ptr null, ptr %26, align 8
  store i32 0, ptr %27, align 4
  store ptr null, ptr %28, align 8
  store i8 0, ptr %29, align 1
  store i8 0, ptr %30, align 1
  store i32 0, ptr %31, align 4
  br label %40

40:                                               ; preds = %35
  %41 = load i32, ptr %23, align 4
  %42 = load i32, ptr %21, align 4
  %43 = icmp ult i32 %41, %42
  %44 = xor i1 %43, true
  %45 = xor i1 %44, true
  %46 = zext i1 %45 to i32
  %47 = sext i32 %46 to i64
  %48 = icmp ne i64 %47, 0
  br i1 %48, label %58, label %49

49:                                               ; preds = %40
  %50 = load i32, ptr %23, align 4
  %51 = load i32, ptr %22, align 4
  %52 = icmp ugt i32 %50, %51
  %53 = xor i1 %52, true
  %54 = xor i1 %53, true
  %55 = zext i1 %54 to i32
  %56 = sext i32 %55 to i64
  %57 = icmp ne i64 %56, 0
  br i1 %57, label %58, label %61

58:                                               ; preds = %49, %40
  %59 = load i32, ptr %21, align 4
  %60 = load i32, ptr %22, align 4
  call void @zend_wrong_parameters_count_error(i32 noundef %59, i32 noundef %60)
  store i32 1, ptr %31, align 4
  br label %172

61:                                               ; preds = %49
  %62 = load ptr, ptr %17, align 8
  %63 = getelementptr inbounds %struct._zval_struct, ptr %62, i64 4
  store ptr %63, ptr %25, align 8
  %64 = load i32, ptr %24, align 4
  %65 = add i32 %64, 1
  store i32 %65, ptr %24, align 4
  %66 = load i32, ptr %24, align 4
  %67 = load i32, ptr %21, align 4
  %68 = icmp ule i32 %66, %67
  br i1 %68, label %74, label %69

69:                                               ; preds = %61
  %70 = load i8, ptr %30, align 1
  %71 = trunc i8 %70 to i1
  %72 = zext i1 %71 to i32
  %73 = icmp eq i32 %72, 1
  br label %74

74:                                               ; preds = %69, %61
  %75 = phi i1 [ true, %61 ], [ %73, %69 ]
  call void @llvm.assume(i1 %75)
  %76 = load i32, ptr %24, align 4
  %77 = load i32, ptr %21, align 4
  %78 = icmp ugt i32 %76, %77
  br i1 %78, label %84, label %79

79:                                               ; preds = %74
  %80 = load i8, ptr %30, align 1
  %81 = trunc i8 %80 to i1
  %82 = zext i1 %81 to i32
  %83 = icmp eq i32 %82, 0
  br label %84

84:                                               ; preds = %79, %74
  %85 = phi i1 [ true, %74 ], [ %83, %79 ]
  call void @llvm.assume(i1 %85)
  %86 = load i8, ptr %30, align 1
  %87 = trunc i8 %86 to i1
  br i1 %87, label %88, label %99

88:                                               ; preds = %84
  %89 = load i32, ptr %24, align 4
  %90 = load i32, ptr %23, align 4
  %91 = icmp ugt i32 %89, %90
  %92 = xor i1 %91, true
  %93 = xor i1 %92, true
  %94 = zext i1 %93 to i32
  %95 = sext i32 %94 to i64
  %96 = icmp ne i64 %95, 0
  br i1 %96, label %97, label %98

97:                                               ; preds = %88
  br label %172

98:                                               ; preds = %88
  br label %99

99:                                               ; preds = %98, %84
  %100 = load ptr, ptr %25, align 8
  %101 = getelementptr inbounds %struct._zval_struct, ptr %100, i32 1
  store ptr %101, ptr %25, align 8
  %102 = load ptr, ptr %25, align 8
  store ptr %102, ptr %26, align 8
  %103 = load ptr, ptr %26, align 8
  %104 = load i32, ptr %24, align 4
  store ptr %103, ptr %12, align 8
  store ptr %19, ptr %13, align 8
  store ptr %29, ptr %14, align 8
  store i8 0, ptr %15, align 1
  store i32 %104, ptr %16, align 4
  %105 = load ptr, ptr %12, align 8
  %106 = load ptr, ptr %13, align 8
  %107 = load ptr, ptr %14, align 8
  %108 = load i8, ptr %15, align 1
  %109 = trunc i8 %108 to i1
  %110 = load i32, ptr %16, align 4
  store ptr %105, ptr %6, align 8
  store ptr %106, ptr %7, align 8
  store ptr %107, ptr %8, align 8
  %111 = zext i1 %109 to i8
  store i8 %111, ptr %9, align 1
  store i32 %110, ptr %10, align 4
  store i8 0, ptr %11, align 1
  %112 = load i8, ptr %9, align 1
  %113 = trunc i8 %112 to i1
  br i1 %113, label %114, label %116

114:                                              ; preds = %99
  %115 = load ptr, ptr %8, align 8
  store i8 0, ptr %115, align 1
  br label %116

116:                                              ; preds = %114, %99
  %117 = load ptr, ptr %6, align 8
  store ptr %117, ptr %3, align 8
  %118 = load ptr, ptr %3, align 8
  %119 = getelementptr inbounds %struct._zval_struct, ptr %118, i32 0, i32 1
  %120 = load i8, ptr %119, align 8
  %121 = zext i8 %120 to i32
  %122 = icmp eq i32 %121, 4
  br i1 %122, label %123, label %127

123:                                              ; preds = %116
  %124 = load ptr, ptr %6, align 8
  %125 = load i64, ptr %124, align 8
  %126 = load ptr, ptr %7, align 8
  store i64 %125, ptr %126, align 8
  br label %153

127:                                              ; preds = %116
  %128 = load i8, ptr %9, align 1
  %129 = trunc i8 %128 to i1
  br i1 %129, label %130, label %140

130:                                              ; preds = %127
  %131 = load ptr, ptr %6, align 8
  store ptr %131, ptr %4, align 8
  %132 = load ptr, ptr %4, align 8
  %133 = getelementptr inbounds %struct._zval_struct, ptr %132, i32 0, i32 1
  %134 = load i8, ptr %133, align 8
  %135 = zext i8 %134 to i32
  %136 = icmp eq i32 %135, 1
  br i1 %136, label %137, label %140

137:                                              ; preds = %130
  %138 = load ptr, ptr %8, align 8
  store i8 1, ptr %138, align 1
  %139 = load ptr, ptr %7, align 8
  store i64 0, ptr %139, align 8
  br label %153

140:                                              ; preds = %130, %127
  %141 = load i8, ptr %11, align 1
  %142 = trunc i8 %141 to i1
  br i1 %142, label %143, label %148

143:                                              ; preds = %140
  %144 = load ptr, ptr %6, align 8
  %145 = load ptr, ptr %7, align 8
  %146 = load i32, ptr %10, align 4
  %147 = call zeroext i1 @zend_flf_parse_arg_long_slow(ptr noundef %144, ptr noundef %145, i32 noundef %146) #3
  store i1 %147, ptr %5, align 1
  br label %154

148:                                              ; preds = %140
  %149 = load ptr, ptr %6, align 8
  %150 = load ptr, ptr %7, align 8
  %151 = load i32, ptr %10, align 4
  %152 = call zeroext i1 @zend_parse_arg_long_slow(ptr noundef %149, ptr noundef %150, i32 noundef %151) #3
  store i1 %152, ptr %5, align 1
  br label %154

153:                                              ; preds = %137, %123
  store i1 true, ptr %5, align 1
  br label %154

154:                                              ; preds = %153, %148, %143
  %155 = load i1, ptr %5, align 1
  %156 = xor i1 %155, true
  %157 = xor i1 %156, true
  %158 = xor i1 %157, true
  %159 = zext i1 %158 to i32
  %160 = sext i32 %159 to i64
  %161 = icmp ne i64 %160, 0
  br i1 %161, label %162, label %163

162:                                              ; preds = %154
  store i32 0, ptr %27, align 4
  store i32 9, ptr %31, align 4
  br label %172

163:                                              ; preds = %154
  %164 = load i32, ptr %24, align 4
  %165 = load i32, ptr %22, align 4
  %166 = icmp eq i32 %164, %165
  br i1 %166, label %170, label %167

167:                                              ; preds = %163
  %168 = load i32, ptr %22, align 4
  %169 = icmp eq i32 %168, -1
  br label %170

170:                                              ; preds = %167, %163
  %171 = phi i1 [ true, %163 ], [ %169, %167 ]
  call void @llvm.assume(i1 %171)
  br label %172

172:                                              ; preds = %170, %162, %97, %58
  %173 = load i32, ptr %31, align 4
  %174 = icmp ne i32 %173, 0
  %175 = xor i1 %174, true
  %176 = xor i1 %175, true
  %177 = zext i1 %176 to i32
  %178 = sext i32 %177 to i64
  %179 = icmp ne i64 %178, 0
  br i1 %179, label %180, label %186

180:                                              ; preds = %172
  %181 = load i32, ptr %31, align 4
  %182 = load i32, ptr %24, align 4
  %183 = load ptr, ptr %28, align 8
  %184 = load i32, ptr %27, align 4
  %185 = load ptr, ptr %26, align 8
  call void @zend_wrong_parameter_error(i32 noundef %181, i32 noundef %182, ptr noundef %183, i32 noundef %184, ptr noundef %185)
  br label %216

186:                                              ; preds = %172
  br label %187

187:                                              ; preds = %186
  %188 = load i64, ptr %19, align 8
  %189 = icmp slt i64 %188, 0
  br i1 %189, label %198, label %190

190:                                              ; preds = %187
  %191 = load i64, ptr %19, align 8
  %192 = icmp sgt i64 %191, 2147483647
  %193 = xor i1 %192, true
  %194 = xor i1 %193, true
  %195 = zext i1 %194 to i32
  %196 = sext i32 %195 to i64
  %197 = icmp ne i64 %196, 0
  br i1 %197, label %198, label %203

198:                                              ; preds = %190, %187
  call void (i32, ptr, ...) @zend_argument_value_error(i32 noundef 1, ptr noundef @.str.1, i32 noundef 2147483647)
  br label %199

199:                                              ; preds = %198
  %200 = load ptr, ptr getelementptr inbounds (%struct._zend_executor_globals, ptr @executor_globals, i32 0, i32 50), align 8
  %201 = icmp ne ptr %200, null
  call void @llvm.assume(i1 %201)
  br label %216

202:                                              ; No predecessors!
  br label %203

203:                                              ; preds = %202, %190
  %204 = load ptr, ptr %17, align 8
  %205 = getelementptr inbounds %struct._zend_execute_data, ptr %204, i32 0, i32 4
  store ptr %205, ptr %32, align 8
  %206 = load ptr, ptr %32, align 8
  %207 = getelementptr inbounds %struct._zval_struct, ptr %206, i32 0, i32 0
  %208 = load ptr, ptr %207, align 8
  %209 = call ptr @php_dom_obj_from_obj(ptr noundef %208)
  store ptr %209, ptr %33, align 8
  %210 = load ptr, ptr %33, align 8
  %211 = getelementptr inbounds %struct._dom_object, ptr %210, i32 0, i32 0
  %212 = load ptr, ptr %211, align 8
  store ptr %212, ptr %34, align 8
  %213 = load ptr, ptr %34, align 8
  %214 = load i64, ptr %19, align 8
  %215 = load ptr, ptr %18, align 8
  call void @php_dom_named_node_map_get_item_into_zval(ptr noundef %213, i64 noundef %214, ptr noundef %215)
  br label %216

216:                                              ; preds = %203, %199, %180
  ret void
}