; Function Attrs: nounwind uwtable
define hidden void @zim_DOMNamedNodeMap_item(ptr noundef %0, ptr noundef %1) local_unnamed_addr #0 {
  %3 = alloca i64, align 8
  %4 = getelementptr inbounds i8, ptr %0, i64 32
  %5 = getelementptr inbounds i8, ptr %0, i64 44
  %6 = load i32, ptr %5, align 4
  %cond = icmp eq i32 %6, 1
  br i1 %cond, label %7, label %.thread82

7:                                                ; preds = %2
  %8 = getelementptr inbounds i8, ptr %0, i64 80
  %9 = getelementptr inbounds i8, ptr %0, i64 88
  %10 = load i8, ptr %9, align 8
  %11 = icmp eq i8 %10, 4
  br i1 %11, label %.thread72, label %13

.thread72:                                        ; preds = %7
  %12 = load i64, ptr %8, align 8
  store i64 %12, ptr %3, align 8
  br label %.thread90

13:                                               ; preds = %7
  %14 = call zeroext i1 @zend_parse_arg_long_slow(ptr noundef nonnull %8, ptr noundef nonnull %3, i32 noundef 1) #3
  %.fr = freeze i1 %14
  br i1 %.fr, label %..thread90_crit_edge, label %15

..thread90_crit_edge:                             ; preds = %13
  %.pre = load i64, ptr %3, align 8
  br label %.thread90

.thread82:                                        ; preds = %2
  tail call void @zend_wrong_parameters_count_error(i32 noundef 1, i32 noundef 1) #3
  br label %15

15:                                               ; preds = %13, %.thread82
  %.05989 = phi i32 [ 0, %.thread82 ], [ 1, %13 ]
  %.06088 = phi i32 [ 1, %.thread82 ], [ 9, %13 ]
  %.06187 = phi ptr [ null, %.thread82 ], [ %8, %13 ]
  call void @zend_wrong_parameter_error(i32 noundef %.06088, i32 noundef %.05989, ptr noundef null, i32 noundef 0, ptr noundef %.06187) #3
  br label %24

.thread90:                                        ; preds = %..thread90_crit_edge, %.thread72
  %16 = phi i64 [ %.pre, %..thread90_crit_edge ], [ %12, %.thread72 ]
  %or.cond = icmp ugt i64 %16, 2147483647
  br i1 %or.cond, label %17, label %20

17:                                               ; preds = %.thread90
  call void (i32, ptr, ...) @zend_argument_value_error(i32 noundef 1, ptr noundef nonnull @.str.1, i32 noundef 2147483647) #3
  %18 = load ptr, ptr getelementptr inbounds (%struct._zend_executor_globals, ptr @executor_globals, i64 0, i32 50), align 8
  %19 = icmp ne ptr %18, null
  call void @llvm.assume(i1 %19)
  br label %24

20:                                               ; preds = %.thread90
  %21 = load ptr, ptr %4, align 8
  %22 = getelementptr inbounds i8, ptr %21, i64 -24
  %23 = load ptr, ptr %22, align 8
  call void @php_dom_named_node_map_get_item_into_zval(ptr noundef %23, i64 noundef %16, ptr noundef %1)
  br label %24

24:                                               ; preds = %20, %17, %15
  ret void
}